target datalayout = "e-m:e-p270:32:32-p271:32:32-p272:64:64-i64:64-i128:128-f80:128-n8:16:32:64-S128"
target triple = "x86_64-pc-linux-gnu"

; Function Attrs: mustprogress uwtable
define linkonce_odr hidden void @_ZN6casadi10DllLibraryC2ERNS_19DeserializingStreamE(ptr noundef nonnull align 8 dereferenceable(176) %0, ptr noundef nonnull align 8 dereferenceable(41) %1) unnamed_addr #4 comdat align 2 {
  %3 = alloca ptr, align 8
  %4 = alloca ptr, align 8
  store ptr %0, ptr %3, align 8, !tbaa !143
  store ptr %1, ptr %4, align 8, !tbaa !166
  %5 = load ptr, ptr %3, align 8
  %6 = load ptr, ptr %4, align 8, !tbaa !166
  call void @_ZN6casadi16ImporterInternalC2ERNS_19DeserializingStreamE(ptr noundef nonnull align 8 dereferenceable(161) %5, ptr noundef nonnull align 8 dereferenceable(41) %6)
  store ptr getelementptr inbounds inrange(-16, 104) ({ [15 x ptr], [3 x ptr] }, ptr @_ZTVN6casadi10DllLibraryE, i32 0, i32 0, i32 2), ptr %5, align 8, !tbaa !10
  %7 = getelementptr inbounds i8, ptr %5, i64 24
  store ptr getelementptr inbounds inrange(-16, 8) ({ [15 x ptr], [3 x ptr] }, ptr @_ZTVN6casadi10DllLibraryE, i32 0, i32 1, i32 2), ptr %7, align 8, !tbaa !10
  ret void
}

; Function Attrs: mustprogress uwtable
define noundef ptr @_ZN6casadi10DllLibrary11deserializeERNS_19DeserializingStreamE(ptr noundef nonnull align 8 dereferenceable(41) %0) #4 align 2 personality ptr @__gxx_personality_v0 {
  %2 = alloca ptr, align 8
  %3 = alloca ptr, align 8
  %4 = alloca ptr, align 8
  %5 = alloca i32, align 4
  store ptr %0, ptr %2, align 8, !tbaa !166
  call void @llvm.lifetime.start.p0(i64 8, ptr %3) #3
  %6 = call noalias noundef nonnull ptr @_Znwm(i64 noundef 176) #23
  %7 = load ptr, ptr %2, align 8, !tbaa !166
  invoke void @_ZN6casadi10DllLibraryC2ERNS_19DeserializingStreamE(ptr noundef nonnull align 8 dereferenceable(176) %6, ptr noundef nonnull align 8 dereferenceable(41) %7)
          to label %8 unwind label %14

8:                                                ; preds = %1
  store ptr %6, ptr %3, align 8, !tbaa !143
  %9 = load ptr, ptr %3, align 8, !tbaa !143
  %10 = load ptr, ptr %9, align 8, !tbaa !10
  %11 = getelementptr inbounds ptr, ptr %10, i64 6
  %12 = load ptr, ptr %11, align 8
  call void %12(ptr noundef nonnull align 8 dereferenceable(176) %9)
  %13 = load ptr, ptr %3, align 8, !tbaa !143
  call void @llvm.lifetime.end.p0(i64 8, ptr %3) #3
  ret ptr %13

14:                                               ; preds = %1
  %15 = landingpad { ptr, i32 }
          cleanup
  %16 = extractvalue { ptr, i32 } %15, 0
  store ptr %16, ptr %4, align 8
  %17 = extractvalue { ptr, i32 } %15, 1
  store i32 %17, ptr %5, align 4
  call void @_ZdlPvm(ptr noundef %6, i64 noundef 176) #20
  call void @llvm.lifetime.end.p0(i64 8, ptr %3) #3
  br label %18

18:                                               ; preds = %14
  %19 = load ptr, ptr %4, align 8
  %20 = load i32, ptr %5, align 4
  %21 = insertvalue { ptr, i32 } poison, ptr %19, 0
  %22 = insertvalue { ptr, i32 } %21, i32 %20, 1
  resume { ptr, i32 } %22
}