; Function Attrs: mustprogress uwtable
define noundef nonnull ptr @_ZN6casadi10DllLibrary11deserializeERNS_19DeserializingStreamE(ptr noundef nonnull align 8 dereferenceable(41) %0) local_unnamed_addr #3 align 2 personality ptr @__gxx_personality_v0 {
  %2 = tail call noalias noundef nonnull dereferenceable(176) ptr @_Znwm(i64 noundef 176) #31
  invoke void @_ZN6casadi16ImporterInternalC2ERNS_19DeserializingStreamE(ptr noundef nonnull align 8 dereferenceable(176) %2, ptr noundef nonnull align 8 dereferenceable(41) %0)
          to label %3 unwind label %5

3:                                                ; preds = %1
  store ptr getelementptr inbounds nuw inrange(-16, 104) (i8, ptr @_ZTVN6casadi10DllLibraryE, i64 16), ptr %2, align 8, !tbaa !3
  %4 = getelementptr inbounds nuw i8, ptr %2, i64 24
  store ptr getelementptr inbounds nuw inrange(-16, 8) (i8, ptr @_ZTVN6casadi10DllLibraryE, i64 136), ptr %4, align 8, !tbaa !3
  tail call void @_ZN6casadi10DllLibrary11init_handleEv(ptr noundef nonnull align 8 dereferenceable(176) %2)
  ret ptr %2

5:                                                ; preds = %1
  %6 = landingpad { ptr, i32 }
          cleanup
  tail call void @_ZdlPvm(ptr noundef nonnull %2, i64 noundef 176) #28
  resume { ptr, i32 } %6
}